; Function Attrs: nofree norecurse nosync nounwind memory(readwrite, inaccessiblemem: none) uwtable
define hidden void @av1_dist_wtd_convolve_x_c(ptr noundef readonly captures(none) %0, i32 noundef %1, ptr noundef writeonly captures(none) %2, i32 noundef %3, i32 noundef %4, i32 noundef %5, ptr noundef readonly captures(none) %6, i32 noundef %7, ptr noundef readonly captures(none) %8) local_unnamed_addr #2 {
  %10 = getelementptr inbounds nuw i8, ptr %8, i64 8
  %11 = load ptr, ptr %10, align 8
  %12 = getelementptr inbounds nuw i8, ptr %8, i64 16
  %13 = load i32, ptr %12, align 8
  %14 = getelementptr inbounds nuw i8, ptr %6, i64 8
  %15 = load i16, ptr %14, align 8
  %16 = getelementptr inbounds nuw i8, ptr %8, i64 24
  %17 = load i32, ptr %16, align 8
  %18 = sub nsw i32 7, %17
  %19 = getelementptr inbounds nuw i8, ptr %8, i64 20
  %20 = load i32, ptr %19, align 4
  %21 = add i32 %20, %17
  %22 = sub i32 22, %21
  %23 = shl nuw i32 1, %22
  %24 = sub i32 21, %21
  %25 = shl nuw i32 1, %24
  %26 = add nsw i32 %23, %25
  %27 = sub i32 14, %21
  %28 = and i32 %7, 15
  %.val = load ptr, ptr %6, align 8
  %29 = zext i16 %15 to i32
  %30 = mul nuw nsw i32 %28, %29
  %31 = zext nneg i32 %30 to i64
  %32 = getelementptr inbounds nuw i16, ptr %.val, i64 %31
  %33 = icmp sgt i32 %5, 0
  br i1 %33, label %.preheader72.lr.ph, label %._crit_edge78

.preheader72.lr.ph:                               ; preds = %9
  %34 = lshr i16 %15, 1
  %35 = zext nneg i16 %34 to i32
  %36 = icmp sgt i32 %4, 0
  %37 = getelementptr inbounds nuw i8, ptr %8, i64 36
  %38 = getelementptr inbounds nuw i8, ptr %8, i64 40
  %39 = getelementptr inbounds nuw i8, ptr %8, i64 44
  %40 = shl nuw i32 1, %27
  %41 = ashr i32 %40, 1
  %42 = sub i32 %41, %26
  br i1 %36, label %.preheader72.us.preheader, label %._crit_edge78

.preheader72.us.preheader:                        ; preds = %.preheader72.lr.ph
  %43 = sext i32 %13 to i64
  %44 = sext i32 %3 to i64
  %wide.trip.count89 = zext nneg i32 %5 to i64
  %wide.trip.count84 = zext nneg i32 %4 to i64
  br label %.preheader72.us

.preheader72.us:                                  ; preds = %.preheader72.us.preheader, %._crit_edge76.us
  %indvars.iv86 = phi i64 [ 0, %.preheader72.us.preheader ], [ %indvars.iv.next87, %._crit_edge76.us ]
  %45 = trunc i64 %indvars.iv86 to i32
  %46 = mul i32 %1, %45
  %reass.sub = sub i32 %46, %35
  %47 = add i32 %reass.sub, 1
  %48 = mul nsw i64 %indvars.iv86, %43
  %49 = mul nsw i64 %indvars.iv86, %44
  %invariant.gep91 = getelementptr i16, ptr %11, i64 %48
  %invariant.gep93 = getelementptr i8, ptr %2, i64 %49
  %invariant.gep95 = getelementptr i16, ptr %11, i64 %48
  br label %.preheader.us

._crit_edge.us:                                   ; preds = %81, %.preheader.us
  %.065.lcssa.us = phi i32 [ 0, %.preheader.us ], [ %88, %81 ]
  %50 = load i32, ptr %19, align 4
  %51 = shl nuw i32 1, %50
  %52 = ashr i32 %51, 1
  %53 = add nsw i32 %52, %.065.lcssa.us
  %54 = ashr i32 %53, %50
  %55 = shl i32 %54, %18
  %56 = add nsw i32 %55, %26
  %57 = load i32, ptr %8, align 8
  %.not.us = icmp eq i32 %57, 0
  br i1 %.not.us, label %78, label %58

58:                                               ; preds = %._crit_edge.us
  %gep92 = getelementptr i16, ptr %invariant.gep91, i64 %indvars.iv81
  %59 = load i16, ptr %gep92, align 2
  %60 = zext i16 %59 to i32
  %61 = load i32, ptr %37, align 4
  %.not68.us = icmp eq i32 %61, 0
  br i1 %.not68.us, label %69, label %62

62:                                               ; preds = %58
  %63 = load i32, ptr %38, align 8
  %64 = mul nsw i32 %63, %60
  %65 = load i32, ptr %39, align 4
  %66 = mul nsw i32 %65, %56
  %67 = add nsw i32 %66, %64
  %68 = ashr i32 %67, 4
  br label %72

69:                                               ; preds = %58
  %70 = add nsw i32 %56, %60
  %71 = ashr i32 %70, 1
  br label %72

72:                                               ; preds = %69, %62
  %.0.us = phi i32 [ %68, %62 ], [ %71, %69 ]
  %73 = add i32 %42, %.0.us
  %74 = ashr i32 %73, %27
  %75 = tail call i32 @llvm.smax.i32(i32 %74, i32 0)
  %76 = tail call i32 @llvm.umin.i32(i32 %75, i32 255)
  %77 = trunc nuw i32 %76 to i8
  %gep94 = getelementptr i8, ptr %invariant.gep93, i64 %indvars.iv81
  store i8 %77, ptr %gep94, align 1
  br label %80

78:                                               ; preds = %._crit_edge.us
  %79 = trunc i32 %56 to i16
  %gep96 = getelementptr i16, ptr %invariant.gep95, i64 %indvars.iv81
  store i16 %79, ptr %gep96, align 2
  br label %80

80:                                               ; preds = %78, %72
  %indvars.iv.next82 = add nuw nsw i64 %indvars.iv81, 1
  %exitcond85.not = icmp eq i64 %indvars.iv.next82, %wide.trip.count84
  br i1 %exitcond85.not, label %._crit_edge76.us, label %.preheader.us, !llvm.loop !38

81:                                               ; preds = %.lr.ph.us, %81
  %indvars.iv = phi i64 [ 0, %.lr.ph.us ], [ %indvars.iv.next, %81 ]
  %.06573.us = phi i32 [ 0, %.lr.ph.us ], [ %88, %81 ]
  %82 = getelementptr inbounds nuw i16, ptr %32, i64 %indvars.iv
  %83 = load i16, ptr %82, align 2
  %84 = sext i16 %83 to i32
  %gep = getelementptr i8, ptr %invariant.gep, i64 %indvars.iv
  %85 = load i8, ptr %gep, align 1
  %86 = zext i8 %85 to i32
  %87 = mul nsw i32 %86, %84
  %88 = add nsw i32 %87, %.06573.us
  %indvars.iv.next = add nuw nsw i64 %indvars.iv, 1
  %exitcond.not = icmp eq i64 %indvars.iv.next, %wide.trip.count
  br i1 %exitcond.not, label %._crit_edge.us, label %81, !llvm.loop !39

.preheader.us:                                    ; preds = %.preheader72.us, %80
  %indvars.iv81 = phi i64 [ 0, %.preheader72.us ], [ %indvars.iv.next82, %80 ]
  %89 = load i16, ptr %14, align 8
  %.not = icmp eq i16 %89, 0
  br i1 %.not, label %._crit_edge.us, label %.lr.ph.us

.lr.ph.us:                                        ; preds = %.preheader.us
  %90 = trunc nuw nsw i64 %indvars.iv81 to i32
  %91 = add i32 %47, %90
  %92 = sext i32 %91 to i64
  %wide.trip.count = zext i16 %89 to i64
  %invariant.gep = getelementptr i8, ptr %0, i64 %92
  br label %81

._crit_edge76.us:                                 ; preds = %80
  %indvars.iv.next87 = add nuw nsw i64 %indvars.iv86, 1
  %exitcond90.not = icmp eq i64 %indvars.iv.next87, %wide.trip.count89
  br i1 %exitcond90.not, label %._crit_edge78, label %.preheader72.us, !llvm.loop !40

._crit_edge78:                                    ; preds = %._crit_edge76.us, %.preheader72.lr.ph, %9
  ret void
}